; Function Attrs: mustprogress uwtable
define void @Z3_enable_trace(ptr noundef %0) local_unnamed_addr #3 personality ptr @__gxx_personality_v0 {
  %2 = alloca %class.symbol, align 8
  tail call void @_ZN6memory10initializeEm(i64 noundef 4294967295)
  %3 = atomicrmw xchg ptr @g_z3_log_enabled, i8 0 seq_cst, align 1
  %4 = trunc i8 %3 to i1
  br i1 %4, label %5, label %7

5:                                                ; preds = %1
  invoke void @_Z19log_Z3_enable_tracePKc(ptr noundef %0)
          to label %7 unwind label %.thread

.thread:                                          ; preds = %5
  %6 = landingpad { ptr, i32 }
          cleanup
  br label %12

7:                                                ; preds = %5, %1
  call void @llvm.lifetime.start.p0(i64 8, ptr nonnull %2) #28
  invoke void @_ZN6symbolC1EPKc(ptr noundef nonnull align 8 dereferenceable(8) %2, ptr noundef %0)
          to label %8 unwind label %10

8:                                                ; preds = %7
  call void @llvm.lifetime.end.p0(i64 8, ptr nonnull %2) #28
  br i1 %4, label %9, label %_ZN10z3_log_ctxD2Ev.exit, !prof !442

9:                                                ; preds = %8
  store atomic i8 1, ptr @g_z3_log_enabled seq_cst, align 1
  br label %_ZN10z3_log_ctxD2Ev.exit

_ZN10z3_log_ctxD2Ev.exit:                         ; preds = %8, %9
  ret void

10:                                               ; preds = %7
  %11 = landingpad { ptr, i32 }
          cleanup
  call void @llvm.lifetime.end.p0(i64 8, ptr nonnull %2) #28
  br i1 %4, label %12, label %_ZN10z3_log_ctxD2Ev.exit5, !prof !550

12:                                               ; preds = %.thread, %10
  %.pn10 = phi { ptr, i32 } [ %6, %.thread ], [ %11, %10 ]
  store atomic i8 1, ptr @g_z3_log_enabled seq_cst, align 1
  br label %_ZN10z3_log_ctxD2Ev.exit5

_ZN10z3_log_ctxD2Ev.exit5:                        ; preds = %10, %12
  %.pn9 = phi { ptr, i32 } [ %11, %10 ], [ %.pn10, %12 ]
  resume { ptr, i32 } %.pn9
}